Certificate:
    Data:
        Version: 3 (0x2)
        Serial Number: 3 (0x3)
        Signature Algorithm: md5WithRSAEncryption
        Issuer: C=TW, O=Appropho Inc, CN=IPNC
        Validity
            Not Before: Feb 24 08:53:41 2011 GMT
            Not After : Jan 18 08:53:41 2038 GMT
        Subject: C=TW, ST=Taiwan, O=Appropho Inc, CN=IPNC/emailAddress=support_team@appropho.com
        Subject Public Key Info:
            Public Key Algorithm: rsaEncryption
            RSA Public Key: (1024 bit)
                Modulus (1024 bit):
                    00:dd:27:05:8a:f1:c0:db:d1:4d:2a:e4:5d:9c:04:
                    34:4e:b3:4a:ba:cd:4d:b6:c1:3f:91:98:ee:dd:4d:
                    29:fb:15:d8:b9:5b:83:1c:55:44:c4:31:6c:1a:88:
                    ce:96:42:c5:3c:4e:ea:80:19:0d:ee:7a:8c:9e:ff:
                    82:d1:17:76:06:43:56:3e:eb:62:96:a7:6c:c3:34:
                    9c:c8:1e:7f:dc:ab:72:9e:1b:d9:af:18:f0:54:c0:
                    eb:c8:fb:4d:8e:38:d1:7a:7e:4b:18:8a:19:f3:52:
                    b5:11:92:24:1b:ff:68:f8:99:ce:60:a3:e1:da:d4:
                    b3:2c:de:72:d2:96:32:f9:6b
                Exponent: 65537 (0x10001)
    Signature Algorithm: md5WithRSAEncryption
        b2:97:b2:5b:9e:c1:71:be:7b:f9:3c:09:11:2d:09:b7:34:a6:
        ec:01:7e:a5:ea:69:5f:b7:4d:03:fc:7a:86:21:bf:1f:6a:2e:
        a7:af:4e:60:63:bb:3a:06:7b:5b:93:07:c0:bc:ac:70:4e:96:
        d6:34:a0:48:50:d6:68:7b:c0:eb:79:64:d2:9f:9d:a6:b5:8d:
        a9:2d:ec:12:00:f2:a1:e7:ed:25:57:cf:c3:9c:a2:60:16:8b:
        fe:19:ba:9e:63:47:53:78:be:15:27:18:f2:3d:a2:a6:0c:4a:
        ef:34:64:9e:0c:e6:0f:a9:44:c7:b6:af:5d:f5:4d:15:b7:e4:
        1f:19
-----BEGIN CERTIFICATE-----
MIICFTCCAX6gAwIBAgIBAzANBgkqhkiG9w0BAQQFADAzMQswCQYDVQQGEwJUVzEV
MBMGA1UEChMMQXBwcm9waG8gSW5jMQ0wCwYDVQQDEwRJUE5DMB4XDTExMDIyNDA4
NTM0MVoXDTM4MDExODA4NTM0MVowbjELMAkGA1UEBhMCVFcxDzANBgNVBAgTBlRh
aXdhbjEVMBMGA1UEChMMQXBwcm9waG8gSW5jMQ0wCwYDVQQDEwRJUE5DMSgwJgYJ
KoZIhvcNAQkBFhlzdXBwb3J0X3RlYW1AYXBwcm9waG8uY29tMIGfMA0GCSqGSIb3
DQEBAQUAA4GNADCBiQKBgQDdJwWK8cDb0U0q5F2cBDROs0q6zU22wT+RmO7dTSn7
Fdi5W4McVUTEMWwaiM6WQsU8TuqAGQ3ueoye/4LRF3YGQ1Y+62KWp2zDNJzIHn/c
q3KeG9mvGPBUwOvI+02OONF6fksYihnzUrURkiQb/2j4mc5go+Ha1LMs3nLSljL5
awIDAQABMA0GCSqGSIb3DQEBBAUAA4GBALKXsluewXG+e/k8CREtCbc0puwBfqXq
aV+3TQP8eoYhvx9qLqevTmBjuzoGe1uTB8C8rHBOltY0oEhQ1mh7wOt5ZNKfnaa1
jakt7BIA8qHn7SVXz8OcomAWi/4Zup5jR1N4vhUnGPI9oqYMSu80ZJ4M5g+pRMe2
r131TRW35B8Z
-----END CERTIFICATE-----
-----BEGIN RSA PRIVATE KEY-----
Proc-Type: 4,ENCRYPTED
DEK-Info: DES-EDE3-CBC,084D5871A0C28F35

a8tnvNAspoggkjbKj+UQPdRyoBVWtwygjPzkje4yrmZQN/5DD2b9p/xknkap5nC4
9yoB2f6ycz3VLIjNtOqidoRfN6gQiuUctN8DWPJ32uUBj/3k6pIO4qk17nL1bwuq
Vq7ImcKWhCGpwVhcfJwrU7syDbs/jqBWME2sxKiRDwMaotEzSV6G+hX4RTAHMlms
TZUr6+W81/Jm8PWGnjUVSzg5YlakzWBBfTNW0AjO7nyCssz5B0u4b99cO11aD3N8
Ej4HTHcSC7ip0uwWbOvYZ+bFXuDkAKgMF7vndnUPXat8ioEJN7RSmWJJfit1XHye
pVtWsCLCsDAriWmMLmPl+010TAOoAskWsYZ6L1IxabekkwRKLxmimxRPJbpAzrOn
qU1nFWRQldcB/8sPdeSyPrGCCBq5i6f2jt33eDEDe0iuo3suZsnz8aYBfF8eAVFC
7aZhEDkpr00BN/nmiZm9tgUn7b073CB7UOdOZdd3CPRQifQXUoSLXKDLdDApGdDE
OaX40FJr6JjM9wxPiRlBaiwZEthpgDKn9QYA780tSknmWWWLvKoNXZbmzFsUqR/h
c/i0UX1GXFbZmr3t0if8my1p13coOgy9Poa6mmZURVRUgvNxgUDZcvqCLfbCWMI0
m3yDwV4EVmlVNfj5B6oTrAnUFX4JShqgKl9GhKzeZvptiFkiDHIIoAgvc+D0edmI
24YFf3t9y3GOTQR68ewYEQ3QkGMoeYug6HKgcPJtgO8aXimf2+lv+jUL3s1uJwP7
AhuGxjLvS8VBFdiKhxzifEPDSZTdyNWXH9gaXHl6dZmmCMW8tUubbg==
-----END RSA PRIVATE KEY-----
